; ModuleID = '24/842.c'
source_filename = "24/842.c"
target datalayout = "e-m:e-p270:32:32-p271:32:32-p272:64:64-i64:64-f80:128-n8:16:32:64-S128"
target triple = "x86_64-pc-linux-gnu"

@.str = private unnamed_addr constant [4 x i8] c"%s\0A\00", align 1
@.str.1 = private unnamed_addr constant [3 x i8] c"%s\00", align 1

; Function Attrs: noinline nounwind uwtable
define dso_local i32 @main() #0 {
  %1 = alloca i32, align 4
  %2 = alloca i32, align 4
  %3 = alloca i32, align 4
  %4 = alloca i32, align 4
  %5 = alloca i32, align 4
  %6 = alloca [4000 x i8], align 16
  %7 = alloca [40 x [20 x i8]], align 16
  %8 = alloca [20 x i8], align 16
  %9 = alloca i32, align 4
  %10 = alloca i32, align 4
  %11 = alloca i32, align 4
  %12 = alloca i32, align 4
  %13 = alloca i32, align 4
  store i32 0, i32* %1, align 4
  store i32 0, i32* %2, align 4
  store i32 0, i32* %3, align 4
  store i32 20, i32* %4, align 4
  store i32 0, i32* %5, align 4
  %14 = bitcast [20 x i8]* %8 to i8*
  call void @llvm.memset.p0i8.i64(i8* align 16 %14, i8 0, i64 20, i1 false)
  store i32 0, i32* %9, align 4
  store i32 0, i32* %10, align 4
  %15 = getelementptr inbounds [4000 x i8], [4000 x i8]* %6, i64 0, i64 0
  %16 = call i32 (i8*, ...) bitcast (i32 (...)* @gets to i32 (i8*, ...)*)(i8* %15)
  %17 = getelementptr inbounds [4000 x i8], [4000 x i8]* %6, i64 0, i64 0
  %18 = call i64 @strlen(i8* %17) #5
  %19 = trunc i64 %18 to i32
  store i32 %19, i32* %12, align 4
  store i32 0, i32* %11, align 4
  br label %20

20:                                               ; preds = %95, %0
  %21 = load i32, i32* %11, align 4
  %22 = load i32, i32* %12, align 4
  %23 = icmp slt i32 %21, %22
  br i1 %23, label %24, label %98

24:                                               ; preds = %20
  %25 = load i32, i32* %11, align 4
  %26 = sext i32 %25 to i64
  %27 = getelementptr inbounds [4000 x i8], [4000 x i8]* %6, i64 0, i64 %26
  %28 = load i8, i8* %27, align 1
  %29 = sext i8 %28 to i32
  %30 = icmp ne i32 %29, 32
  br i1 %30, label %31, label %51

31:                                               ; preds = %24
  %32 = load i32, i32* %11, align 4
  %33 = sext i32 %32 to i64
  %34 = getelementptr inbounds [4000 x i8], [4000 x i8]* %6, i64 0, i64 %33
  %35 = load i8, i8* %34, align 1
  %36 = load i32, i32* %9, align 4
  %37 = sext i32 %36 to i64
  %38 = getelementptr inbounds [20 x i8], [20 x i8]* %8, i64 0, i64 %37
  store i8 %35, i8* %38, align 1
  %39 = load i32, i32* %11, align 4
  %40 = sext i32 %39 to i64
  %41 = getelementptr inbounds [4000 x i8], [4000 x i8]* %6, i64 0, i64 %40
  %42 = load i8, i8* %41, align 1
  %43 = load i32, i32* %10, align 4
  %44 = sext i32 %43 to i64
  %45 = getelementptr inbounds [40 x [20 x i8]], [40 x [20 x i8]]* %7, i64 0, i64 %44
  %46 = load i32, i32* %9, align 4
  %47 = sext i32 %46 to i64
  %48 = getelementptr inbounds [20 x i8], [20 x i8]* %45, i64 0, i64 %47
  store i8 %42, i8* %48, align 1
  %49 = load i32, i32* %9, align 4
  %50 = add nsw i32 %49, 1
  store i32 %50, i32* %9, align 4
  br label %71

51:                                               ; preds = %24
  %52 = load i32, i32* %10, align 4
  %53 = sext i32 %52 to i64
  %54 = getelementptr inbounds [40 x [20 x i8]], [40 x [20 x i8]]* %7, i64 0, i64 %53
  %55 = getelementptr inbounds [20 x i8], [20 x i8]* %54, i64 0, i64 0
  %56 = getelementptr inbounds [20 x i8], [20 x i8]* %8, i64 0, i64 0
  %57 = call i8* @strcpy(i8* %55, i8* %56) #6
  store i32 0, i32* %9, align 4
  %58 = load i32, i32* %10, align 4
  %59 = add nsw i32 %58, 1
  store i32 %59, i32* %10, align 4
  store i32 0, i32* %13, align 4
  br label %60

60:                                               ; preds = %67, %51
  %61 = load i32, i32* %13, align 4
  %62 = icmp slt i32 %61, 20
  br i1 %62, label %63, label %70

63:                                               ; preds = %60
  %64 = load i32, i32* %13, align 4
  %65 = sext i32 %64 to i64
  %66 = getelementptr inbounds [20 x i8], [20 x i8]* %8, i64 0, i64 %65
  store i8 0, i8* %66, align 1
  br label %67

67:                                               ; preds = %63
  %68 = load i32, i32* %13, align 4
  %69 = add nsw i32 %68, 1
  store i32 %69, i32* %13, align 4
  br label %60

70:                                               ; preds = %60
  br label %71

71:                                               ; preds = %70, %31
  %72 = load i32, i32* %11, align 4
  %73 = load i32, i32* %12, align 4
  %74 = sub nsw i32 %73, 1
  %75 = icmp eq i32 %72, %74
  br i1 %75, label %76, label %94

76:                                               ; preds = %71
  %77 = load i32, i32* %10, align 4
  %78 = sext i32 %77 to i64
  %79 = getelementptr inbounds [40 x [20 x i8]], [40 x [20 x i8]]* %7, i64 0, i64 %78
  %80 = getelementptr inbounds [20 x i8], [20 x i8]* %79, i64 0, i64 0
  %81 = getelementptr inbounds [20 x i8], [20 x i8]* %8, i64 0, i64 0
  %82 = call i8* @strcpy(i8* %80, i8* %81) #6
  store i32 0, i32* %13, align 4
  br label %83

83:                                               ; preds = %90, %76
  %84 = load i32, i32* %13, align 4
  %85 = icmp slt i32 %84, 20
  br i1 %85, label %86, label %93

86:                                               ; preds = %83
  %87 = load i32, i32* %13, align 4
  %88 = sext i32 %87 to i64
  %89 = getelementptr inbounds [20 x i8], [20 x i8]* %8, i64 0, i64 %88
  store i8 0, i8* %89, align 1
  br label %90

90:                                               ; preds = %86
  %91 = load i32, i32* %13, align 4
  %92 = add nsw i32 %91, 1
  store i32 %92, i32* %13, align 4
  br label %83

93:                                               ; preds = %83
  br label %94

94:                                               ; preds = %93, %71
  br label %95

95:                                               ; preds = %94
  %96 = load i32, i32* %11, align 4
  %97 = add nsw i32 %96, 1
  store i32 %97, i32* %11, align 4
  br label %20

98:                                               ; preds = %20
  store i32 0, i32* %11, align 4
  br label %99

99:                                               ; preds = %138, %98
  %100 = load i32, i32* %11, align 4
  %101 = load i32, i32* %10, align 4
  %102 = icmp sle i32 %100, %101
  br i1 %102, label %103, label %141

103:                                              ; preds = %99
  %104 = load i32, i32* %11, align 4
  %105 = sext i32 %104 to i64
  %106 = getelementptr inbounds [40 x [20 x i8]], [40 x [20 x i8]]* %7, i64 0, i64 %105
  %107 = getelementptr inbounds [20 x i8], [20 x i8]* %106, i64 0, i64 0
  %108 = call i64 @strlen(i8* %107) #5
  %109 = load i32, i32* %2, align 4
  %110 = sext i32 %109 to i64
  %111 = icmp ugt i64 %108, %110
  br i1 %111, label %112, label %120

112:                                              ; preds = %103
  %113 = load i32, i32* %11, align 4
  %114 = sext i32 %113 to i64
  %115 = getelementptr inbounds [40 x [20 x i8]], [40 x [20 x i8]]* %7, i64 0, i64 %114
  %116 = getelementptr inbounds [20 x i8], [20 x i8]* %115, i64 0, i64 0
  %117 = call i64 @strlen(i8* %116) #5
  %118 = trunc i64 %117 to i32
  store i32 %118, i32* %2, align 4
  %119 = load i32, i32* %11, align 4
  store i32 %119, i32* %3, align 4
  br label %120

120:                                              ; preds = %112, %103
  %121 = load i32, i32* %11, align 4
  %122 = sext i32 %121 to i64
  %123 = getelementptr inbounds [40 x [20 x i8]], [40 x [20 x i8]]* %7, i64 0, i64 %122
  %124 = getelementptr inbounds [20 x i8], [20 x i8]* %123, i64 0, i64 0
  %125 = call i64 @strlen(i8* %124) #5
  %126 = load i32, i32* %4, align 4
  %127 = sext i32 %126 to i64
  %128 = icmp ult i64 %125, %127
  br i1 %128, label %129, label %137

129:                                              ; preds = %120
  %130 = load i32, i32* %11, align 4
  %131 = sext i32 %130 to i64
  %132 = getelementptr inbounds [40 x [20 x i8]], [40 x [20 x i8]]* %7, i64 0, i64 %131
  %133 = getelementptr inbounds [20 x i8], [20 x i8]* %132, i64 0, i64 0
  %134 = call i64 @strlen(i8* %133) #5
  %135 = trunc i64 %134 to i32
  store i32 %135, i32* %4, align 4
  %136 = load i32, i32* %11, align 4
  store i32 %136, i32* %5, align 4
  br label %137

137:                                              ; preds = %129, %120
  br label %138

138:                                              ; preds = %137
  %139 = load i32, i32* %11, align 4
  %140 = add nsw i32 %139, 1
  store i32 %140, i32* %11, align 4
  br label %99

141:                                              ; preds = %99
  %142 = load i32, i32* %3, align 4
  %143 = sext i32 %142 to i64
  %144 = getelementptr inbounds [40 x [20 x i8]], [40 x [20 x i8]]* %7, i64 0, i64 %143
  %145 = getelementptr inbounds [20 x i8], [20 x i8]* %144, i64 0, i64 0
  %146 = call i32 (i8*, ...) @printf(i8* getelementptr inbounds ([4 x i8], [4 x i8]* @.str, i64 0, i64 0), i8* %145)
  %147 = load i32, i32* %5, align 4
  %148 = sext i32 %147 to i64
  %149 = getelementptr inbounds [40 x [20 x i8]], [40 x [20 x i8]]* %7, i64 0, i64 %148
  %150 = getelementptr inbounds [20 x i8], [20 x i8]* %149, i64 0, i64 0
  %151 = call i32 (i8*, ...) @printf(i8* getelementptr inbounds ([3 x i8], [3 x i8]* @.str.1, i64 0, i64 0), i8* %150)
  ret i32 0
}

; Function Attrs: argmemonly nounwind willreturn
declare void @llvm.memset.p0i8.i64(i8* nocapture writeonly, i8, i64, i1 immarg) #1

declare dso_local i32 @gets(...) #2

; Function Attrs: nounwind readonly
declare dso_local i64 @strlen(i8*) #3

; Function Attrs: nounwind
declare dso_local i8* @strcpy(i8*, i8*) #4

declare dso_local i32 @printf(i8*, ...) #2


!llvm.module.flags = !{!0}
!llvm.ident = !{!1}

!0 = !{i32 1, !"wchar_size", i32 4}
!1 = !{!"clang version 10.0.0-4ubuntu1 "}
